target datalayout = "e-m:e-p270:32:32-p271:32:32-p272:64:64-i64:64-i128:128-f80:128-n8:16:32:64-S128"
target triple = "x86_64-pc-linux-gnu"

%struct._object = type { %union.anon, ptr }
%union.anon = type { i64 }

@_Py_NoneStruct = external global %struct._object, align 8
@.str.62 = private unnamed_addr constant [8 x i8] c"delattr\00", align 1

; Function Attrs: nounwind uwtable
define internal ptr @builtin_delattr_impl(ptr noundef %0, ptr noundef %1, ptr noundef %2) #0 {
  %4 = alloca ptr, align 8
  %5 = alloca ptr, align 8
  %6 = alloca ptr, align 8
  %7 = alloca ptr, align 8
  store ptr %0, ptr %5, align 8, !tbaa !4
  store ptr %1, ptr %6, align 8, !tbaa !4
  store ptr %2, ptr %7, align 8, !tbaa !4
  %8 = load ptr, ptr %6, align 8, !tbaa !4
  %9 = load ptr, ptr %7, align 8, !tbaa !4
  %10 = call i32 @PyObject_DelAttr(ptr noundef %8, ptr noundef %9)
  %11 = icmp slt i32 %10, 0
  br i1 %11, label %12, label %13

12:                                               ; preds = %3
  store ptr null, ptr %4, align 8
  br label %14

13:                                               ; preds = %3
  store ptr @_Py_NoneStruct, ptr %4, align 8
  br label %14

14:                                               ; preds = %13, %12
  %15 = load ptr, ptr %4, align 8
  ret ptr %15
}

; Function Attrs: nounwind uwtable
define internal ptr @builtin_delattr(ptr noundef %0, ptr noundef %1, i64 noundef %2) #0 {
  %4 = alloca ptr, align 8
  %5 = alloca ptr, align 8
  %6 = alloca i64, align 8
  %7 = alloca ptr, align 8
  %8 = alloca ptr, align 8
  %9 = alloca ptr, align 8
  store ptr %0, ptr %4, align 8, !tbaa !4
  store ptr %1, ptr %5, align 8, !tbaa !44
  store i64 %2, ptr %6, align 8, !tbaa !40
  call void @llvm.lifetime.start.p0(i64 8, ptr %7) #9
  store ptr null, ptr %7, align 8, !tbaa !4
  call void @llvm.lifetime.start.p0(i64 8, ptr %8) #9
  call void @llvm.lifetime.start.p0(i64 8, ptr %9) #9
  %10 = load i64, ptr %6, align 8, !tbaa !40
  %11 = icmp sle i64 2, %10
  br i1 %11, label %12, label %15

12:                                               ; preds = %3
  %13 = load i64, ptr %6, align 8, !tbaa !40
  %14 = icmp sle i64 %13, 2
  br i1 %14, label %20, label %15

15:                                               ; preds = %12, %3
  %16 = load i64, ptr %6, align 8, !tbaa !40
  %17 = call i32 @_PyArg_CheckPositional(ptr noundef @.str.62, i64 noundef %16, i64 noundef 2, i64 noundef 2)
  %18 = icmp ne i32 %17, 0
  br i1 %18, label %20, label %19

19:                                               ; preds = %15
  br label %31

20:                                               ; preds = %15, %12
  %21 = load ptr, ptr %5, align 8, !tbaa !44
  %22 = getelementptr ptr, ptr %21, i64 0
  %23 = load ptr, ptr %22, align 8, !tbaa !4
  store ptr %23, ptr %8, align 8, !tbaa !4
  %24 = load ptr, ptr %5, align 8, !tbaa !44
  %25 = getelementptr ptr, ptr %24, i64 1
  %26 = load ptr, ptr %25, align 8, !tbaa !4
  store ptr %26, ptr %9, align 8, !tbaa !4
  %27 = load ptr, ptr %4, align 8, !tbaa !4
  %28 = load ptr, ptr %8, align 8, !tbaa !4
  %29 = load ptr, ptr %9, align 8, !tbaa !4
  %30 = call ptr @builtin_delattr_impl(ptr noundef %27, ptr noundef %28, ptr noundef %29)
  store ptr %30, ptr %7, align 8, !tbaa !4
  br label %31

31:                                               ; preds = %20, %19
  %32 = load ptr, ptr %7, align 8, !tbaa !4
  call void @llvm.lifetime.end.p0(i64 8, ptr %9) #9
  call void @llvm.lifetime.end.p0(i64 8, ptr %8) #9
  call void @llvm.lifetime.end.p0(i64 8, ptr %7) #9
  ret ptr %32
}